###############################################################################
#                                                                             #
# IAR C/C++ Compiler V1.30.1.50036 for STM8             24/Jan/2015  12:33:29 #
# Copyright 2010-2011 IAR Systems AB.                                         #
#                                                                             #
#    Source file  =  D:\Project\STM8S_StdPeriph_Lib_V2.1.0\Libraries\STM8S_St #
#                    dPeriph_Driver\src\stm8s_tim4.c                          #
#    Command line =  D:\Project\STM8S_StdPeriph_Lib_V2.1.0\Libraries\STM8S_St #
#                    dPeriph_Driver\src\stm8s_tim4.c -e -Ol --no_cse          #
#                    --no_unroll --no_inline --no_code_motion --no_tbaa       #
#                    --no_cross_call --debug --code_model medium              #
#                    --data_model medium -o D:\Project\STM8S_StdPeriph_Lib_V2 #
#                    .1.0\Project\STM8S_StdPeriph_Template\EWSTM8\STM8S208\Ob #
#                    j\ --dlib_config "C:\Program Files\IAR Systems\Embedded  #
#                    Workbench 6.0\stm8\LIB\dlstm8mmn.h" -D                   #
#                    USE_STM8_128_EVAL -D STM8S003 -lC                        #
#                    D:\Project\STM8S_StdPeriph_Lib_V2.1.0\Project\STM8S_StdP #
#                    eriph_Template\EWSTM8\STM8S208\List\ -lb                 #
#                    D:\Project\STM8S_StdPeriph_Lib_V2.1.0\Project\STM8S_StdP #
#                    eriph_Template\EWSTM8\STM8S208\List\ -I                  #
#                    D:\Project\STM8S_StdPeriph_Lib_V2.1.0\Project\STM8S_StdP #
#                    eriph_Template\EWSTM8\..\ -I                             #
#                    D:\Project\STM8S_StdPeriph_Lib_V2.1.0\Project\STM8S_StdP #
#                    eriph_Template\EWSTM8\..\..\..\Libraries\STM8S_StdPeriph #
#                    _Driver\inc\ -I D:\Project\STM8S_StdPeriph_Lib_V2.1.0\Pr #
#                    oject\STM8S_StdPeriph_Template\EWSTM8\..\..\..\Utilities #
#                    \STM8S_EVAL\ -I D:\Project\STM8S_StdPeriph_Lib_V2.1.0\Pr #
#                    oject\STM8S_StdPeriph_Template\EWSTM8\..\..\..\Utilities #
#                    \STM8S_EVAL\STM8S-128_EVAL\ -I                           #
#                    D:\Project\STM8S_StdPeriph_Lib_V2.1.0\Project\STM8S_StdP #
#                    eriph_Template\EWSTM8\..\..\..\Utilities\STM8S_EVAL\Comm #
#                    on\ --vregs 16                                           #
#    List file    =  D:\Project\STM8S_StdPeriph_Lib_V2.1.0\Project\STM8S_StdP #
#                    eriph_Template\EWSTM8\STM8S208\List\stm8s_tim4.lst       #
#    Object file  =  D:\Project\STM8S_StdPeriph_Lib_V2.1.0\Project\STM8S_StdP #
#                    eriph_Template\EWSTM8\STM8S208\Obj\stm8s_tim4.o          #
#                                                                             #
#                                                                             #
###############################################################################

D:\Project\STM8S_StdPeriph_Lib_V2.1.0\Libraries\STM8S_StdPeriph_Driver\src\stm8s_tim4.c
      1          /**
      2            ******************************************************************************
      3            * @file    stm8s_tim4.c
      4            * @author  MCD Application Team
      5            * @version V2.1.0
      6            * @date    18-November-2011
      7            * @brief   This file contains all the functions for the TIM4 peripheral.
      8            ******************************************************************************
      9            * @attention
     10            *
     11            * THE PRESENT FIRMWARE WHICH IS FOR GUIDANCE ONLY AIMS AT PROVIDING CUSTOMERS
     12            * WITH CODING INFORMATION REGARDING THEIR PRODUCTS IN ORDER FOR THEM TO SAVE
     13            * TIME. AS A RESULT, STMICROELECTRONICS SHALL NOT BE HELD LIABLE FOR ANY
     14            * DIRECT, INDIRECT OR CONSEQUENTIAL DAMAGES WITH RESPECT TO ANY CLAIMS ARISING
     15            * FROM THE CONTENT OF SUCH FIRMWARE AND/OR THE USE MADE BY CUSTOMERS OF THE
     16            * CODING INFORMATION CONTAINED HEREIN IN CONNECTION WITH THEIR PRODUCTS.
     17            *
     18            * <h2><center>&copy; COPYRIGHT 2011 STMicroelectronics</center></h2>
     19            ******************************************************************************
     20            */
     21          
     22          /* Includes ------------------------------------------------------------------*/
     23          #include "stm8s_tim4.h"
     24          
     25          /** @addtogroup STM8S_StdPeriph_Driver
     26            * @{
     27            */
     28          /* Private typedef -----------------------------------------------------------*/
     29          /* Private define ------------------------------------------------------------*/
     30          /* Private macro -------------------------------------------------------------*/
     31          /* Private variables ---------------------------------------------------------*/
     32          /* Private function prototypes -----------------------------------------------*/
     33          /**
     34            * @addtogroup TIM4_Public_Functions
     35            * @{
     36            */
     37          
     38          /**
     39            * @brief  Deinitializes the TIM4 peripheral registers to their default reset values.
     40            * @param  None
     41            * @retval None
     42            */

   \                                 In section .far_func.text, align 1
     43          void TIM4_DeInit(void)
     44          {
     45              TIM4->CR1 = TIM4_CR1_RESET_VALUE;
   \                     TIM4_DeInit:
   \   000000 35005340              MOV       L:0x5340, #0x0
     46              TIM4->IER = TIM4_IER_RESET_VALUE;
   \   000004 35005343              MOV       L:0x5343, #0x0
     47              TIM4->CNTR = TIM4_CNTR_RESET_VALUE;
   \   000008 35005346              MOV       L:0x5346, #0x0
     48              TIM4->PSCR = TIM4_PSCR_RESET_VALUE;
   \   00000C 35005347              MOV       L:0x5347, #0x0
     49              TIM4->ARR = TIM4_ARR_RESET_VALUE;
   \   000010 35FF5348              MOV       L:0x5348, #0xff
     50              TIM4->SR1 = TIM4_SR1_RESET_VALUE;
   \   000014 35005344              MOV       L:0x5344, #0x0
     51          }
   \   000018 87                    RETF
     52          
     53          /**
     54            * @brief  Initializes the TIM4 Time Base Unit according to the specified parameters.
     55            * @param    TIM4_Prescaler specifies the Prescaler from TIM4_Prescaler_TypeDef.
     56            * @param    TIM4_Period specifies the Period value.
     57            * @retval None
     58            */

   \                                 In section .far_func.text, align 1
     59          void TIM4_TimeBaseInit(TIM4_Prescaler_TypeDef TIM4_Prescaler, uint8_t TIM4_Period)
     60          {
   \                     TIM4_TimeBaseInit:
   \   000000 8D000000              CALLF     L:?push_w4
   \   000004 B700                  LD        S:?b9, A
   \   000006 450000                MOV       S:?b8, S:?b0
     61              /* Check TIM4 prescaler value */
     62              assert_param(IS_TIM4_PRESCALER_OK(TIM4_Prescaler));
   \   000009 3D00                  TNZ       S:?b9
   \   00000B 2739                  JREQ      L:??TIM4_TimeBaseInit_0
   \   00000D B600                  LD        A, S:?b9
   \   00000F A101                  CP        A, #0x1
   \   000011 2733                  JREQ      L:??TIM4_TimeBaseInit_0
   \   000013 B600                  LD        A, S:?b9
   \   000015 A102                  CP        A, #0x2
   \   000017 272D                  JREQ      L:??TIM4_TimeBaseInit_0
   \   000019 B600                  LD        A, S:?b9
   \   00001B A103                  CP        A, #0x3
   \   00001D 2727                  JREQ      L:??TIM4_TimeBaseInit_0
   \   00001F B600                  LD        A, S:?b9
   \   000021 A104                  CP        A, #0x4
   \   000023 2721                  JREQ      L:??TIM4_TimeBaseInit_0
   \   000025 B600                  LD        A, S:?b9
   \   000027 A105                  CP        A, #0x5
   \   000029 271B                  JREQ      L:??TIM4_TimeBaseInit_0
   \   00002B B600                  LD        A, S:?b9
   \   00002D A106                  CP        A, #0x6
   \   00002F 2715                  JREQ      L:??TIM4_TimeBaseInit_0
   \   000031 B600                  LD        A, S:?b9
   \   000033 A107                  CP        A, #0x7
   \   000035 270F                  JREQ      L:??TIM4_TimeBaseInit_0
   \   000037 AE003E                LDW       X, #0x3e
   \   00003A BF00                  LDW       S:?w1, X
   \   00003C 5F                    CLRW      X
   \   00003D BF00                  LDW       S:?w0, X
   \   00003F AE0000                LDW       X, #`?<Constant "D:\\\\Project\\\\STM8S_StdP...">`
   \   000042 8D000000              CALLF     assert_failed
     63              /* Set the Prescaler value */
     64              TIM4->PSCR = (uint8_t)(TIM4_Prescaler);
   \                     ??TIM4_TimeBaseInit_0:
   \   000046 B600                  LD        A, S:?b9
   \   000048 C75347                LD        L:0x5347, A
     65              /* Set the Autoreload value */
     66              TIM4->ARR = (uint8_t)(TIM4_Period);
   \   00004B B600                  LD        A, S:?b8
   \   00004D C75348                LD        L:0x5348, A
     67          }
   \   000050 AC000000              JPF       L:?epilogue_w4
     68          
     69          
     70          
     71          /**
     72            * @brief  Enables or disables the TIM4 peripheral.
     73            * @param   NewState new state of the TIM4 peripheral. This parameter can
     74            * be ENABLE or DISABLE.
     75            * @retval None
     76            */

   \                                 In section .far_func.text, align 1
     77          void TIM4_Cmd(FunctionalState NewState)
     78          {
   \                     TIM4_Cmd:
   \   000000 3B0000                PUSH      S:?b8
   \   000003 B700                  LD        S:?b8, A
     79              /* Check the parameters */
     80              assert_param(IS_FUNCTIONALSTATE_OK(NewState));
   \   000005 3D00                  TNZ       S:?b8
   \   000007 2715                  JREQ      L:??TIM4_Cmd_0
   \   000009 B600                  LD        A, S:?b8
   \   00000B A101                  CP        A, #0x1
   \   00000D 270F                  JREQ      L:??TIM4_Cmd_0
   \   00000F AE0050                LDW       X, #0x50
   \   000012 BF00                  LDW       S:?w1, X
   \   000014 5F                    CLRW      X
   \   000015 BF00                  LDW       S:?w0, X
   \   000017 AE0000                LDW       X, #`?<Constant "D:\\\\Project\\\\STM8S_StdP...">`
   \   00001A 8D000000              CALLF     assert_failed
     81          
     82              /* set or Reset the CEN Bit */
     83              if (NewState != DISABLE)
   \                     ??TIM4_Cmd_0:
   \   00001E 3D00                  TNZ       S:?b8
   \   000020 2706                  JREQ      L:??TIM4_Cmd_1
     84              {
     85                  TIM4->CR1 |= TIM4_CR1_CEN;
   \   000022 72105340              BSET      L:0x5340, #0x0
   \   000026 2004                  JRA       L:??TIM4_Cmd_2
     86              }
     87              else
     88              {
     89                  TIM4->CR1 &= (uint8_t)(~TIM4_CR1_CEN);
   \                     ??TIM4_Cmd_1:
   \   000028 72115340              BRES      L:0x5340, #0x0
     90              }
     91          }
   \                     ??TIM4_Cmd_2:
   \   00002C 320000                POP       S:?b8
   \   00002F 87                    RETF
     92          
     93          /**
     94            * @brief  Enables or disables the specified TIM4 interrupts.
     95            * @param   NewState new state of the TIM4 peripheral.
     96            * This parameter can be: ENABLE or DISABLE.
     97            * @param   TIM4_IT specifies the TIM4 interrupts sources to be enabled or disabled.
     98            * This parameter can be any combination of the following values:
     99            * - TIM4_IT_UPDATE: TIM4 update Interrupt source
    100            * @param   NewState new state of the TIM4 peripheral.
    101            * @retval None
    102            */

   \                                 In section .far_func.text, align 1
    103          void TIM4_ITConfig(TIM4_IT_TypeDef TIM4_IT, FunctionalState NewState)
    104          {
   \                     TIM4_ITConfig:
   \   000000 8D000000              CALLF     L:?push_w4
   \   000004 B700                  LD        S:?b8, A
   \   000006 450000                MOV       S:?b9, S:?b0
    105              /* Check the parameters */
    106              assert_param(IS_TIM4_IT_OK(TIM4_IT));
   \   000009 B600                  LD        A, S:?b8
   \   00000B A101                  CP        A, #0x1
   \   00000D 270F                  JREQ      L:??TIM4_ITConfig_0
   \   00000F AE006A                LDW       X, #0x6a
   \   000012 BF00                  LDW       S:?w1, X
   \   000014 5F                    CLRW      X
   \   000015 BF00                  LDW       S:?w0, X
   \   000017 AE0000                LDW       X, #`?<Constant "D:\\\\Project\\\\STM8S_StdP...">`
   \   00001A 8D000000              CALLF     assert_failed
    107              assert_param(IS_FUNCTIONALSTATE_OK(NewState));
   \                     ??TIM4_ITConfig_0:
   \   00001E 3D00                  TNZ       S:?b9
   \   000020 2715                  JREQ      L:??TIM4_ITConfig_1
   \   000022 B600                  LD        A, S:?b9
   \   000024 A101                  CP        A, #0x1
   \   000026 270F                  JREQ      L:??TIM4_ITConfig_1
   \   000028 AE006B                LDW       X, #0x6b
   \   00002B BF00                  LDW       S:?w1, X
   \   00002D 5F                    CLRW      X
   \   00002E BF00                  LDW       S:?w0, X
   \   000030 AE0000                LDW       X, #`?<Constant "D:\\\\Project\\\\STM8S_StdP...">`
   \   000033 8D000000              CALLF     assert_failed
    108          
    109              if (NewState != DISABLE)
   \                     ??TIM4_ITConfig_1:
   \   000037 3D00                  TNZ       S:?b9
   \   000039 270C                  JREQ      L:??TIM4_ITConfig_2
    110              {
    111                  /* Enable the Interrupt sources */
    112                  TIM4->IER |= (uint8_t)TIM4_IT;
   \   00003B B600                  LD        A, S:?b8
   \   00003D CA5343                OR        A, L:0x5343
   \   000040 C75343                LD        L:0x5343, A
   \   000043 AC000000              JPF       L:?epilogue_w4
    113              }
    114              else
    115              {
    116                  /* Disable the Interrupt sources */
    117                  TIM4->IER &= (uint8_t)(~TIM4_IT);
   \                     ??TIM4_ITConfig_2:
   \   000047 3300                  CPL       S:?b8
   \   000049 B600                  LD        A, S:?b8
   \   00004B C45343                AND       A, L:0x5343
   \   00004E C75343                LD        L:0x5343, A
    118              }
    119          }
   \   000051 AC000000              JPF       L:?epilogue_w4
    120          
    121          /**
    122            * @brief  Enables or Disables the TIM4 Update event.
    123            * @param   NewState new state of the TIM4 peripheral Preload register. This parameter can
    124            * be ENABLE or DISABLE.
    125            * @retval None
    126            */

   \                                 In section .far_func.text, align 1
    127          void TIM4_UpdateDisableConfig(FunctionalState NewState)
    128          {
   \                     TIM4_UpdateDisableConfig:
   \   000000 3B0000                PUSH      S:?b8
   \   000003 B700                  LD        S:?b8, A
    129              /* Check the parameters */
    130              assert_param(IS_FUNCTIONALSTATE_OK(NewState));
   \   000005 3D00                  TNZ       S:?b8
   \   000007 2715                  JREQ      L:??TIM4_UpdateDisableConfig_0
   \   000009 B600                  LD        A, S:?b8
   \   00000B A101                  CP        A, #0x1
   \   00000D 270F                  JREQ      L:??TIM4_UpdateDisableConfig_0
   \   00000F AE0082                LDW       X, #0x82
   \   000012 BF00                  LDW       S:?w1, X
   \   000014 5F                    CLRW      X
   \   000015 BF00                  LDW       S:?w0, X
   \   000017 AE0000                LDW       X, #`?<Constant "D:\\\\Project\\\\STM8S_StdP...">`
   \   00001A 8D000000              CALLF     assert_failed
    131          
    132              /* Set or Reset the UDIS Bit */
    133              if (NewState != DISABLE)
   \                     ??TIM4_UpdateDisableConfig_0:
   \   00001E 3D00                  TNZ       S:?b8
   \   000020 2706                  JREQ      L:??TIM4_UpdateDisableConfig_1
    134              {
    135                  TIM4->CR1 |= TIM4_CR1_UDIS;
   \   000022 72125340              BSET      L:0x5340, #0x1
   \   000026 2004                  JRA       L:??TIM4_UpdateDisableConfig_2
    136              }
    137              else
    138              {
    139                  TIM4->CR1 &= (uint8_t)(~TIM4_CR1_UDIS);
   \                     ??TIM4_UpdateDisableConfig_1:
   \   000028 72135340              BRES      L:0x5340, #0x1
    140              }
    141          }
   \                     ??TIM4_UpdateDisableConfig_2:
   \   00002C 320000                POP       S:?b8
   \   00002F 87                    RETF
    142          
    143          /**
    144            * @brief  Selects the TIM4 Update Request Interrupt source.
    145            * @param   TIM4_UpdateSource specifies the Update source.
    146            * This parameter can be one of the following values
    147            *                       - TIM4_UPDATESOURCE_REGULAR
    148            *                       - TIM4_UPDATESOURCE_GLOBAL
    149            * @retval None
    150            */

   \                                 In section .far_func.text, align 1
    151          void TIM4_UpdateRequestConfig(TIM4_UpdateSource_TypeDef TIM4_UpdateSource)
    152          {
   \                     TIM4_UpdateRequestConfig:
   \   000000 3B0000                PUSH      S:?b8
   \   000003 B700                  LD        S:?b8, A
    153              /* Check the parameters */
    154              assert_param(IS_TIM4_UPDATE_SOURCE_OK(TIM4_UpdateSource));
   \   000005 3D00                  TNZ       S:?b8
   \   000007 2715                  JREQ      L:??TIM4_UpdateRequestConfig_0
   \   000009 B600                  LD        A, S:?b8
   \   00000B A101                  CP        A, #0x1
   \   00000D 270F                  JREQ      L:??TIM4_UpdateRequestConfig_0
   \   00000F AE009A                LDW       X, #0x9a
   \   000012 BF00                  LDW       S:?w1, X
   \   000014 5F                    CLRW      X
   \   000015 BF00                  LDW       S:?w0, X
   \   000017 AE0000                LDW       X, #`?<Constant "D:\\\\Project\\\\STM8S_StdP...">`
   \   00001A 8D000000              CALLF     assert_failed
    155          
    156              /* Set or Reset the URS Bit */
    157              if (TIM4_UpdateSource != TIM4_UPDATESOURCE_GLOBAL)
   \                     ??TIM4_UpdateRequestConfig_0:
   \   00001E 3D00                  TNZ       S:?b8
   \   000020 2706                  JREQ      L:??TIM4_UpdateRequestConfig_1
    158              {
    159                  TIM4->CR1 |= TIM4_CR1_URS;
   \   000022 72145340              BSET      L:0x5340, #0x2
   \   000026 2004                  JRA       L:??TIM4_UpdateRequestConfig_2
    160              }
    161              else
    162              {
    163                  TIM4->CR1 &= (uint8_t)(~TIM4_CR1_URS);
   \                     ??TIM4_UpdateRequestConfig_1:
   \   000028 72155340              BRES      L:0x5340, #0x2
    164              }
    165          }
   \                     ??TIM4_UpdateRequestConfig_2:
   \   00002C 320000                POP       S:?b8
   \   00002F 87                    RETF
    166          
    167          /**
    168            * @brief  Selects the TIM4’s One Pulse Mode.
    169            * @param   TIM4_OPMode specifies the OPM Mode to be used.
    170            * This parameter can be one of the following values
    171            *                    - TIM4_OPMODE_SINGLE
    172            *                    - TIM4_OPMODE_REPETITIVE
    173            * @retval None
    174            */

   \                                 In section .far_func.text, align 1
    175          void TIM4_SelectOnePulseMode(TIM4_OPMode_TypeDef TIM4_OPMode)
    176          {
   \                     TIM4_SelectOnePulseMode:
   \   000000 3B0000                PUSH      S:?b8
   \   000003 B700                  LD        S:?b8, A
    177              /* Check the parameters */
    178              assert_param(IS_TIM4_OPM_MODE_OK(TIM4_OPMode));
   \   000005 B600                  LD        A, S:?b8
   \   000007 A101                  CP        A, #0x1
   \   000009 2713                  JREQ      L:??TIM4_SelectOnePulseMode_0
   \   00000B 3D00                  TNZ       S:?b8
   \   00000D 270F                  JREQ      L:??TIM4_SelectOnePulseMode_0
   \   00000F AE00B2                LDW       X, #0xb2
   \   000012 BF00                  LDW       S:?w1, X
   \   000014 5F                    CLRW      X
   \   000015 BF00                  LDW       S:?w0, X
   \   000017 AE0000                LDW       X, #`?<Constant "D:\\\\Project\\\\STM8S_StdP...">`
   \   00001A 8D000000              CALLF     assert_failed
    179          
    180              /* Set or Reset the OPM Bit */
    181              if (TIM4_OPMode != TIM4_OPMODE_REPETITIVE)
   \                     ??TIM4_SelectOnePulseMode_0:
   \   00001E 3D00                  TNZ       S:?b8
   \   000020 2706                  JREQ      L:??TIM4_SelectOnePulseMode_1
    182              {
    183                  TIM4->CR1 |= TIM4_CR1_OPM;
   \   000022 72165340              BSET      L:0x5340, #0x3
   \   000026 2004                  JRA       L:??TIM4_SelectOnePulseMode_2
    184              }
    185              else
    186              {
    187                  TIM4->CR1 &= (uint8_t)(~TIM4_CR1_OPM);
   \                     ??TIM4_SelectOnePulseMode_1:
   \   000028 72175340              BRES      L:0x5340, #0x3
    188              }
    189          
    190          }
   \                     ??TIM4_SelectOnePulseMode_2:
   \   00002C 320000                POP       S:?b8
   \   00002F 87                    RETF
    191          
    192          /**
    193            * @brief  Configures the TIM4 Prescaler.
    194            * @param   Prescaler specifies the Prescaler Register value
    195            * This parameter can be one of the following values
    196            *                       -  TIM4_PRESCALER_1
    197            *                       -  TIM4_PRESCALER_2
    198            *                       -  TIM4_PRESCALER_4
    199            *                       -  TIM4_PRESCALER_8
    200            *                       -  TIM4_PRESCALER_16
    201            *                       -  TIM4_PRESCALER_32
    202            *                       -  TIM4_PRESCALER_64
    203            *                       -  TIM4_PRESCALER_128
    204            * @param   TIM4_PSCReloadMode specifies the TIM4 Prescaler Reload mode.
    205            * This parameter can be one of the following values
    206            *                       - TIM4_PSCRELOADMODE_IMMEDIATE: The Prescaler is loaded
    207            *                         immediatly.
    208            *                       - TIM4_PSCRELOADMODE_UPDATE: The Prescaler is loaded at
    209            *                         the update event.
    210            * @retval None
    211            */

   \                                 In section .far_func.text, align 1
    212          void TIM4_PrescalerConfig(TIM4_Prescaler_TypeDef Prescaler, TIM4_PSCReloadMode_TypeDef TIM4_PSCReloadMode)
    213          {
   \                     TIM4_PrescalerConfig:
   \   000000 8D000000              CALLF     L:?push_w4
   \   000004 B700                  LD        S:?b9, A
   \   000006 450000                MOV       S:?b8, S:?b0
    214              /* Check the parameters */
    215              assert_param(IS_TIM4_PRESCALER_RELOAD_OK(TIM4_PSCReloadMode));
   \   000009 3D00                  TNZ       S:?b8
   \   00000B 2715                  JREQ      L:??TIM4_PrescalerConfig_0
   \   00000D B600                  LD        A, S:?b8
   \   00000F A101                  CP        A, #0x1
   \   000011 270F                  JREQ      L:??TIM4_PrescalerConfig_0
   \   000013 AE00D7                LDW       X, #0xd7
   \   000016 BF00                  LDW       S:?w1, X
   \   000018 5F                    CLRW      X
   \   000019 BF00                  LDW       S:?w0, X
   \   00001B AE0000                LDW       X, #`?<Constant "D:\\\\Project\\\\STM8S_StdP...">`
   \   00001E 8D000000              CALLF     assert_failed
    216              assert_param(IS_TIM4_PRESCALER_OK(Prescaler));
   \                     ??TIM4_PrescalerConfig_0:
   \   000022 3D00                  TNZ       S:?b9
   \   000024 2739                  JREQ      L:??TIM4_PrescalerConfig_1
   \   000026 B600                  LD        A, S:?b9
   \   000028 A101                  CP        A, #0x1
   \   00002A 2733                  JREQ      L:??TIM4_PrescalerConfig_1
   \   00002C B600                  LD        A, S:?b9
   \   00002E A102                  CP        A, #0x2
   \   000030 272D                  JREQ      L:??TIM4_PrescalerConfig_1
   \   000032 B600                  LD        A, S:?b9
   \   000034 A103                  CP        A, #0x3
   \   000036 2727                  JREQ      L:??TIM4_PrescalerConfig_1
   \   000038 B600                  LD        A, S:?b9
   \   00003A A104                  CP        A, #0x4
   \   00003C 2721                  JREQ      L:??TIM4_PrescalerConfig_1
   \   00003E B600                  LD        A, S:?b9
   \   000040 A105                  CP        A, #0x5
   \   000042 271B                  JREQ      L:??TIM4_PrescalerConfig_1
   \   000044 B600                  LD        A, S:?b9
   \   000046 A106                  CP        A, #0x6
   \   000048 2715                  JREQ      L:??TIM4_PrescalerConfig_1
   \   00004A B600                  LD        A, S:?b9
   \   00004C A107                  CP        A, #0x7
   \   00004E 270F                  JREQ      L:??TIM4_PrescalerConfig_1
   \   000050 AE00D8                LDW       X, #0xd8
   \   000053 BF00                  LDW       S:?w1, X
   \   000055 5F                    CLRW      X
   \   000056 BF00                  LDW       S:?w0, X
   \   000058 AE0000                LDW       X, #`?<Constant "D:\\\\Project\\\\STM8S_StdP...">`
   \   00005B 8D000000              CALLF     assert_failed
    217          
    218              /* Set the Prescaler value */
    219              TIM4->PSCR = (uint8_t)Prescaler;
   \                     ??TIM4_PrescalerConfig_1:
   \   00005F B600                  LD        A, S:?b9
   \   000061 C75347                LD        L:0x5347, A
    220          
    221              /* Set or reset the UG Bit */
    222              TIM4->EGR = (uint8_t)TIM4_PSCReloadMode;
   \   000064 B600                  LD        A, S:?b8
   \   000066 C75345                LD        L:0x5345, A
    223          }
   \   000069 AC000000              JPF       L:?epilogue_w4
    224          
    225          /**
    226            * @brief  Enables or disables TIM4 peripheral Preload register on ARR.
    227            * @param   NewState new state of the TIM4 peripheral Preload register.
    228            * This parameter can be ENABLE or DISABLE.
    229            * @retval None
    230            */

   \                                 In section .far_func.text, align 1
    231          void TIM4_ARRPreloadConfig(FunctionalState NewState)
    232          {
   \                     TIM4_ARRPreloadConfig:
   \   000000 3B0000                PUSH      S:?b8
   \   000003 B700                  LD        S:?b8, A
    233              /* Check the parameters */
    234              assert_param(IS_FUNCTIONALSTATE_OK(NewState));
   \   000005 3D00                  TNZ       S:?b8
   \   000007 2715                  JREQ      L:??TIM4_ARRPreloadConfig_0
   \   000009 B600                  LD        A, S:?b8
   \   00000B A101                  CP        A, #0x1
   \   00000D 270F                  JREQ      L:??TIM4_ARRPreloadConfig_0
   \   00000F AE00EA                LDW       X, #0xea
   \   000012 BF00                  LDW       S:?w1, X
   \   000014 5F                    CLRW      X
   \   000015 BF00                  LDW       S:?w0, X
   \   000017 AE0000                LDW       X, #`?<Constant "D:\\\\Project\\\\STM8S_StdP...">`
   \   00001A 8D000000              CALLF     assert_failed
    235          
    236              /* Set or Reset the ARPE Bit */
    237              if (NewState != DISABLE)
   \                     ??TIM4_ARRPreloadConfig_0:
   \   00001E 3D00                  TNZ       S:?b8
   \   000020 2706                  JREQ      L:??TIM4_ARRPreloadConfig_1
    238              {
    239                  TIM4->CR1 |= TIM4_CR1_ARPE;
   \   000022 721E5340              BSET      L:0x5340, #0x7
   \   000026 2004                  JRA       L:??TIM4_ARRPreloadConfig_2
    240              }
    241              else
    242              {
    243                  TIM4->CR1 &= (uint8_t)(~TIM4_CR1_ARPE);
   \                     ??TIM4_ARRPreloadConfig_1:
   \   000028 721F5340              BRES      L:0x5340, #0x7
    244              }
    245          }
   \                     ??TIM4_ARRPreloadConfig_2:
   \   00002C 320000                POP       S:?b8
   \   00002F 87                    RETF
    246          
    247          /**
    248            * @brief  Configures the TIM4 event to be generated by software.
    249            * @param   TIM4_EventSource specifies the event source.
    250            * This parameter can be one of the following values:
    251            *                       - TIM4_EVENTSOURCE_UPDATE: TIM4 update Event source
    252            * @retval None
    253            */

   \                                 In section .far_func.text, align 1
    254          void TIM4_GenerateEvent(TIM4_EventSource_TypeDef TIM4_EventSource)
    255          {
   \                     TIM4_GenerateEvent:
   \   000000 3B0000                PUSH      S:?b8
   \   000003 B700                  LD        S:?b8, A
    256              /* Check the parameters */
    257              assert_param(IS_TIM4_EVENT_SOURCE_OK(TIM4_EventSource));
   \   000005 B600                  LD        A, S:?b8
   \   000007 A101                  CP        A, #0x1
   \   000009 270F                  JREQ      L:??TIM4_GenerateEvent_0
   \   00000B AE0101                LDW       X, #0x101
   \   00000E BF00                  LDW       S:?w1, X
   \   000010 5F                    CLRW      X
   \   000011 BF00                  LDW       S:?w0, X
   \   000013 AE0000                LDW       X, #`?<Constant "D:\\\\Project\\\\STM8S_StdP...">`
   \   000016 8D000000              CALLF     assert_failed
    258          
    259              /* Set the event sources */
    260              TIM4->EGR = (uint8_t)(TIM4_EventSource);
   \                     ??TIM4_GenerateEvent_0:
   \   00001A B600                  LD        A, S:?b8
   \   00001C C75345                LD        L:0x5345, A
    261          }
   \   00001F 320000                POP       S:?b8
   \   000022 87                    RETF
    262          
    263          
    264          /**
    265            * @brief  Sets the TIM4 Counter Register value.
    266            * @param   Counter specifies the Counter register new value.
    267            * This parameter is between 0x00 and 0xFF.
    268            * @retval None
    269            */

   \                                 In section .far_func.text, align 1
    270          void TIM4_SetCounter(uint8_t Counter)
    271          {
    272              /* Set the Counter Register value */
    273              TIM4->CNTR = (uint8_t)(Counter);
   \                     TIM4_SetCounter:
   \   000000 C75346                LD        L:0x5346, A
    274          }
   \   000003 87                    RETF
    275          
    276          
    277          /**
    278            * @brief  Sets the TIM4 Autoreload Register value.
    279            * @param   Autoreload specifies the Autoreload register new value.
    280            * This parameter is between 0x00 and 0xFF.
    281            * @retval None
    282            */

   \                                 In section .far_func.text, align 1
    283          void TIM4_SetAutoreload(uint8_t Autoreload)
    284          {
    285              /* Set the Autoreload Register value */
    286              TIM4->ARR = (uint8_t)(Autoreload);
   \                     TIM4_SetAutoreload:
   \   000000 C75348                LD        L:0x5348, A
    287          }
   \   000003 87                    RETF
    288          
    289          /**
    290            * @brief  Gets the TIM4 Counter value.
    291            * @param  None
    292            * @retval Counter Register value.
    293            */

   \                                 In section .far_func.text, align 1
    294          uint8_t TIM4_GetCounter(void)
    295          {
    296              /* Get the Counter Register value */
    297              return (uint8_t)(TIM4->CNTR);
   \                     TIM4_GetCounter:
   \   000000 C65346                LD        A, L:0x5346
   \   000003 87                    RETF
    298          }
    299          
    300          /**
    301            * @brief  Gets the TIM4 Prescaler value.
    302            * @param  None
    303            * @retval Prescaler Register configuration value.
    304            */

   \                                 In section .far_func.text, align 1
    305          TIM4_Prescaler_TypeDef TIM4_GetPrescaler(void)
    306          {
    307              /* Get the Prescaler Register value */
    308              return (TIM4_Prescaler_TypeDef)(TIM4->PSCR);
   \                     TIM4_GetPrescaler:
   \   000000 C65347                LD        A, L:0x5347
   \   000003 87                    RETF
    309          }
    310          
    311          /**
    312            * @brief  Checks whether the specified TIM4 flag is set or not.
    313            * @param   TIM4_FLAG specifies the flag to check.
    314            * This parameter can be one of the following values:
    315            *                       - TIM4_FLAG_UPDATE: TIM4 update Flag
    316            * @retval FlagStatus The new state of TIM4_FLAG (SET or RESET).
    317            */

   \                                 In section .far_func.text, align 1
    318          FlagStatus TIM4_GetFlagStatus(TIM4_FLAG_TypeDef TIM4_FLAG)
    319          {
   \                     TIM4_GetFlagStatus:
   \   000000 3B0000                PUSH      S:?b8
   \   000003 B700                  LD        S:?b8, A
    320              FlagStatus bitstatus = RESET;
   \   000005 3F00                  CLR       S:?b0
    321            
    322              /* Check the parameters */
    323              assert_param(IS_TIM4_GET_FLAG_OK(TIM4_FLAG));
   \   000007 B600                  LD        A, S:?b8
   \   000009 A101                  CP        A, #0x1
   \   00000B 270F                  JREQ      L:??TIM4_GetFlagStatus_0
   \   00000D AE0143                LDW       X, #0x143
   \   000010 BF00                  LDW       S:?w1, X
   \   000012 5F                    CLRW      X
   \   000013 BF00                  LDW       S:?w0, X
   \   000015 AE0000                LDW       X, #`?<Constant "D:\\\\Project\\\\STM8S_StdP...">`
   \   000018 8D000000              CALLF     assert_failed
    324          
    325            if ((TIM4->SR1 & (uint8_t)TIM4_FLAG)  != 0)
   \                     ??TIM4_GetFlagStatus_0:
   \   00001C B600                  LD        A, S:?b8
   \   00001E C45344                AND       A, L:0x5344
   \   000021 A100                  CP        A, #0x0
   \   000023 2706                  JREQ      L:??TIM4_GetFlagStatus_1
    326            {
    327              bitstatus = SET;
   \   000025 35010000              MOV       S:?b0, #0x1
   \   000029 2002                  JRA       L:??TIM4_GetFlagStatus_2
    328            }
    329            else
    330            {
    331              bitstatus = RESET;
   \                     ??TIM4_GetFlagStatus_1:
   \   00002B 3F00                  CLR       S:?b0
    332            }
    333            return ((FlagStatus)bitstatus);
   \                     ??TIM4_GetFlagStatus_2:
   \   00002D B600                  LD        A, S:?b0
   \   00002F 320000                POP       S:?b8
   \   000032 87                    RETF
    334          }
    335          
    336          /**
    337            * @brief  Clears the TIM4’s pending flags.
    338            * @param   TIM4_FLAG specifies the flag to clear.
    339            * This parameter can be one of the following values:
    340            *                       - TIM4_FLAG_UPDATE: TIM4 update Flag
    341            * @retval None.
    342            */

   \                                 In section .far_func.text, align 1
    343          void TIM4_ClearFlag(TIM4_FLAG_TypeDef TIM4_FLAG)
    344          {
   \                     TIM4_ClearFlag:
   \   000000 3B0000                PUSH      S:?b8
   \   000003 B700                  LD        S:?b8, A
    345              /* Check the parameters */
    346              assert_param(IS_TIM4_GET_FLAG_OK(TIM4_FLAG));
   \   000005 B600                  LD        A, S:?b8
   \   000007 A101                  CP        A, #0x1
   \   000009 270F                  JREQ      L:??TIM4_ClearFlag_0
   \   00000B AE015A                LDW       X, #0x15a
   \   00000E BF00                  LDW       S:?w1, X
   \   000010 5F                    CLRW      X
   \   000011 BF00                  LDW       S:?w0, X
   \   000013 AE0000                LDW       X, #`?<Constant "D:\\\\Project\\\\STM8S_StdP...">`
   \   000016 8D000000              CALLF     assert_failed
    347          
    348              /* Clear the flags (rc_w0) clear this bit by writing 0. Writing ‘1’ has no effect*/
    349              TIM4->SR1 = (uint8_t)(~TIM4_FLAG);
   \                     ??TIM4_ClearFlag_0:
   \   00001A 3300                  CPL       S:?b8
   \   00001C B600                  LD        A, S:?b8
   \   00001E C75344                LD        L:0x5344, A
    350          
    351          }
   \   000021 320000                POP       S:?b8
   \   000024 87                    RETF
    352          /**
    353            * @brief  Checks whether the TIM4 interrupt has occurred or not.
    354            * @param   TIM4_IT specifies the TIM4 interrupt source to check.
    355            * This parameter can be one of the following values:
    356            *                       - TIM4_IT_UPDATE: TIM4 update Interrupt source
    357            * @retval ITStatus The new state of the TIM4_IT (SET or RESET).
    358            */
    359          

   \                                 In section .far_func.text, align 1
    360          ITStatus TIM4_GetITStatus(TIM4_IT_TypeDef TIM4_IT)
    361          {
   \                     TIM4_GetITStatus:
   \   000000 3B0000                PUSH      S:?b8
   \   000003 B700                  LD        S:?b8, A
    362              ITStatus bitstatus = RESET;
   \   000005 3F00                  CLR       S:?b0
    363          
    364            uint8_t itstatus = 0x0, itenable = 0x0;
   \   000007 3F00                  CLR       S:?b2
   \   000009 3F00                  CLR       S:?b1
    365          
    366            /* Check the parameters */
    367            assert_param(IS_TIM4_IT_OK(TIM4_IT));
   \   00000B B600                  LD        A, S:?b8
   \   00000D A101                  CP        A, #0x1
   \   00000F 270F                  JREQ      L:??TIM4_GetITStatus_0
   \   000011 AE016F                LDW       X, #0x16f
   \   000014 BF00                  LDW       S:?w1, X
   \   000016 5F                    CLRW      X
   \   000017 BF00                  LDW       S:?w0, X
   \   000019 AE0000                LDW       X, #`?<Constant "D:\\\\Project\\\\STM8S_StdP...">`
   \   00001C 8D000000              CALLF     assert_failed
    368          
    369            itstatus = (uint8_t)(TIM4->SR1 & (uint8_t)TIM4_IT);
   \                     ??TIM4_GetITStatus_0:
   \   000020 B600                  LD        A, S:?b8
   \   000022 C45344                AND       A, L:0x5344
   \   000025 B700                  LD        S:?b2, A
    370          
    371            itenable = (uint8_t)(TIM4->IER & (uint8_t)TIM4_IT);
   \   000027 B600                  LD        A, S:?b8
   \   000029 C45343                AND       A, L:0x5343
   \   00002C B700                  LD        S:?b1, A
    372          
    373            if ((itstatus != (uint8_t)RESET ) && (itenable != (uint8_t)RESET ))
   \   00002E 3D00                  TNZ       S:?b2
   \   000030 270A                  JREQ      L:??TIM4_GetITStatus_1
   \   000032 3D00                  TNZ       S:?b1
   \   000034 2706                  JREQ      L:??TIM4_GetITStatus_1
    374            {
    375              bitstatus = (ITStatus)SET;
   \   000036 35010000              MOV       S:?b0, #0x1
   \   00003A 2002                  JRA       L:??TIM4_GetITStatus_2
    376            }
    377            else
    378            {
    379              bitstatus = (ITStatus)RESET;
   \                     ??TIM4_GetITStatus_1:
   \   00003C 3F00                  CLR       S:?b0
    380            }
    381            return ((ITStatus)bitstatus);
   \                     ??TIM4_GetITStatus_2:
   \   00003E B600                  LD        A, S:?b0
   \   000040 320000                POP       S:?b8
   \   000043 87                    RETF
    382          }
    383          
    384          /**
    385            * @brief  Clears the TIM4's interrupt pending bits.
    386            * @param   TIM4_IT specifies the pending bit to clear.
    387            * This parameter can be one of the following values:
    388            *                       - TIM4_IT_UPDATE: TIM4 update Interrupt source
    389            * @retval None.
    390            */

   \                                 In section .far_func.text, align 1
    391          void TIM4_ClearITPendingBit(TIM4_IT_TypeDef TIM4_IT)
    392          {
   \                     TIM4_ClearITPendingBit:
   \   000000 3B0000                PUSH      S:?b8
   \   000003 B700                  LD        S:?b8, A
    393              /* Check the parameters */
    394              assert_param(IS_TIM4_IT_OK(TIM4_IT));
   \   000005 B600                  LD        A, S:?b8
   \   000007 A101                  CP        A, #0x1
   \   000009 270F                  JREQ      L:??TIM4_ClearITPendingBit_0
   \   00000B AE018A                LDW       X, #0x18a
   \   00000E BF00                  LDW       S:?w1, X
   \   000010 5F                    CLRW      X
   \   000011 BF00                  LDW       S:?w0, X
   \   000013 AE0000                LDW       X, #`?<Constant "D:\\\\Project\\\\STM8S_StdP...">`
   \   000016 8D000000              CALLF     assert_failed
    395          
    396              /* Clear the IT pending Bit */
    397              TIM4->SR1 = (uint8_t)(~TIM4_IT);
   \                     ??TIM4_ClearITPendingBit_0:
   \   00001A 3300                  CPL       S:?b8
   \   00001C B600                  LD        A, S:?b8
   \   00001E C75344                LD        L:0x5344, A
    398          }
   \   000021 320000                POP       S:?b8
   \   000024 87                    RETF

   \                                 In section .near.rodata, align 1
   \                     `?<Constant "D:\\\\Project\\\\STM8S_StdP...">`:
   \   000000 443A5C50726F          DC8 44H, 3AH, 5CH, 50H, 72H, 6FH, 6AH, 65H
   \   000008 63745C53544D          DC8 63H, 74H, 5CH, 53H, 54H, 4DH, 38H, 53H
   \   000010 5F5374645065          DC8 5FH, 53H, 74H, 64H, 50H, 65H, 72H, 69H
   \   000018 70685F4C6962          DC8 70H, 68H, 5FH, 4CH, 69H, 62H, 5FH, 56H
   \   000020 322E312E305C          DC8 32H, 2EH, 31H, 2EH, 30H, 5CH, 4CH, 69H
   \   000028 627261726965          DC8 62H, 72H, 61H, 72H, 69H, 65H, 73H, 5CH
   \   000030 53544D38535F          DC8 53H, 54H, 4DH, 38H, 53H, 5FH, 53H, 74H
   \   000038 645065726970          DC8 64H, 50H, 65H, 72H, 69H, 70H, 68H, 5FH
   \   000040 447269766572          DC8 44H, 72H, 69H, 76H, 65H, 72H, 5CH, 73H
   \   000048 72635C73746D          DC8 72H, 63H, 5CH, 73H, 74H, 6DH, 38H, 73H
   \   000050 5F74696D342E          DC8 5FH, 74H, 69H, 6DH, 34H, 2EH, 63H, 0
    399          
    400          /**
    401            * @}
    402            */
    403            
    404            /**
    405            * @}
    406            */
    407            
    408          /******************* (C) COPYRIGHT 2011 STMicroelectronics *****END OF FILE****/

   Section sizes:

     Function/Label                           Bytes
     --------------                           -----
     TIM4_DeInit                                25
     TIM4_TimeBaseInit                          84
     TIM4_Cmd                                   48
     TIM4_ITConfig                              85
     TIM4_UpdateDisableConfig                   48
     TIM4_UpdateRequestConfig                   48
     TIM4_SelectOnePulseMode                    48
     TIM4_PrescalerConfig                      109
     TIM4_ARRPreloadConfig                      48
     TIM4_GenerateEvent                         35
     TIM4_SetCounter                             4
     TIM4_SetAutoreload                          4
     TIM4_GetCounter                             4
     TIM4_GetPrescaler                           4
     TIM4_GetFlagStatus                         51
     TIM4_ClearFlag                             37
     TIM4_GetITStatus                           68
     TIM4_ClearITPendingBit                     37
     ?<Constant "D:\\Project\\STM8S_StdP...">   88

 
 787 bytes in section .far_func.text
  88 bytes in section .near.rodata
 
 787 bytes of CODE  memory
  88 bytes of CONST memory

Errors: none
Warnings: none
